target datalayout = "e-m:e-p270:32:32-p271:32:32-p272:64:64-i64:64-i128:128-f80:128-n8:16:32:64-S128"
target triple = "x86_64-unknown-linux-gnu"

%struct.tdefl_compressor = type { ptr, ptr, i32, [2 x i32], i32, i32, i32, i32, i32, ptr, ptr, ptr, ptr, i32, i32, i32, i32, i32, i32, i32, i32, i32, i32, i32, i32, i32, i32, ptr, ptr, ptr, ptr, i32, ptr, i64, i64, [33025 x i8], [3 x [288 x i16]], [3 x [288 x i16]], [3 x [288 x i8]], [65536 x i8], [32768 x i16], [32768 x i16], [85196 x i8] }
%struct.mz_zip_archive = type { i64, i64, i32, i32, i32, i32, i64, ptr, ptr, ptr, ptr, ptr, ptr, ptr, ptr, ptr }
%struct.mz_zip_writer_add_state = type { ptr, i64, i64 }
%struct.zip_t = type { %struct.mz_zip_archive, i32, %struct.zip_entry_t }
%struct.zip_entry_t = type { i32, ptr, i64, i64, i32, i64, [30 x i8], i64, i16, %struct.mz_zip_writer_add_state, %struct.tdefl_compressor, i32, i64 }

; Function Attrs: nounwind uwtable
define hidden ptr @zip_stream_open(ptr noundef %stream, i64 noundef %size, i32 noundef %level, i8 noundef signext %mode) #0 {
entry:
  %retval = alloca ptr, align 8
  %stream.addr = alloca ptr, align 8
  %size.addr = alloca i64, align 8
  %level.addr = alloca i32, align 4
  %mode.addr = alloca i8, align 1
  %zip = alloca ptr, align 8
  store ptr %stream, ptr %stream.addr, align 8
  store i64 %size, ptr %size.addr, align 8
  store i32 %level, ptr %level.addr, align 4
  store i8 %mode, ptr %mode.addr, align 1
  %call = call noalias ptr @calloc(i64 noundef 1, i64 noundef 319608) #14
  store ptr %call, ptr %zip, align 8
  %0 = load ptr, ptr %zip, align 8
  %tobool = icmp ne ptr %0, null
  br i1 %tobool, label %if.end, label %if.then

if.then:                                          ; preds = %entry
  store ptr null, ptr %retval, align 8
  br label %return

if.end:                                           ; preds = %entry
  %1 = load i32, ptr %level.addr, align 4
  %cmp = icmp slt i32 %1, 0
  br i1 %cmp, label %if.then1, label %if.end2

if.then1:                                         ; preds = %if.end
  store i32 6, ptr %level.addr, align 4
  br label %if.end2

if.end2:                                          ; preds = %if.then1, %if.end
  %2 = load i32, ptr %level.addr, align 4
  %and = and i32 %2, 15
  %cmp3 = icmp sgt i32 %and, 10
  br i1 %cmp3, label %if.then4, label %if.end5

if.then4:                                         ; preds = %if.end2
  br label %cleanup

if.end5:                                          ; preds = %if.end2
  %3 = load i32, ptr %level.addr, align 4
  %4 = load ptr, ptr %zip, align 8
  %level6 = getelementptr inbounds %struct.zip_t, ptr %4, i32 0, i32 1
  store i32 %3, ptr %level6, align 8
  %5 = load ptr, ptr %stream.addr, align 8
  %cmp7 = icmp ne ptr %5, null
  br i1 %cmp7, label %land.lhs.true, label %if.else

land.lhs.true:                                    ; preds = %if.end5
  %6 = load i64, ptr %size.addr, align 8
  %cmp8 = icmp ugt i64 %6, 0
  br i1 %cmp8, label %land.lhs.true9, label %if.else

land.lhs.true9:                                   ; preds = %land.lhs.true
  %7 = load i8, ptr %mode.addr, align 1
  %conv = sext i8 %7 to i32
  %cmp10 = icmp eq i32 %conv, 114
  br i1 %cmp10, label %if.then12, label %if.else

if.then12:                                        ; preds = %land.lhs.true9
  %8 = load ptr, ptr %zip, align 8
  %archive = getelementptr inbounds %struct.zip_t, ptr %8, i32 0, i32 0
  %9 = load ptr, ptr %stream.addr, align 8
  %10 = load i64, ptr %size.addr, align 8
  %call13 = call i32 @mz_zip_reader_init_mem(ptr noundef %archive, ptr noundef %9, i64 noundef %10, i32 noundef 0)
  %tobool14 = icmp ne i32 %call13, 0
  br i1 %tobool14, label %if.end16, label %if.then15

if.then15:                                        ; preds = %if.then12
  br label %cleanup

if.end16:                                         ; preds = %if.then12
  br label %if.end34

if.else:                                          ; preds = %land.lhs.true9, %land.lhs.true, %if.end5
  %11 = load ptr, ptr %stream.addr, align 8
  %cmp17 = icmp eq ptr %11, null
  br i1 %cmp17, label %land.lhs.true19, label %if.else32

land.lhs.true19:                                  ; preds = %if.else
  %12 = load i64, ptr %size.addr, align 8
  %cmp20 = icmp eq i64 %12, 0
  br i1 %cmp20, label %land.lhs.true22, label %if.else32

land.lhs.true22:                                  ; preds = %land.lhs.true19
  %13 = load i8, ptr %mode.addr, align 1
  %conv23 = sext i8 %13 to i32
  %cmp24 = icmp eq i32 %conv23, 119
  br i1 %cmp24, label %if.then26, label %if.else32

if.then26:                                        ; preds = %land.lhs.true22
  %14 = load ptr, ptr %zip, align 8
  %archive27 = getelementptr inbounds %struct.zip_t, ptr %14, i32 0, i32 0
  %call28 = call i32 @mz_zip_writer_init_heap(ptr noundef %archive27, i64 noundef 0, i64 noundef 1024)
  %tobool29 = icmp ne i32 %call28, 0
  br i1 %tobool29, label %if.end31, label %if.then30

if.then30:                                        ; preds = %if.then26
  br label %cleanup

if.end31:                                         ; preds = %if.then26
  br label %if.end33

if.else32:                                        ; preds = %land.lhs.true22, %land.lhs.true19, %if.else
  br label %cleanup

if.end33:                                         ; preds = %if.end31
  br label %if.end34

if.end34:                                         ; preds = %if.end33, %if.end16
  %15 = load ptr, ptr %zip, align 8
  store ptr %15, ptr %retval, align 8
  br label %return

cleanup:                                          ; preds = %if.else32, %if.then30, %if.then15, %if.then4
  br label %do.body

do.body:                                          ; preds = %cleanup
  %16 = load ptr, ptr %zip, align 8
  %tobool35 = icmp ne ptr %16, null
  br i1 %tobool35, label %if.then36, label %if.end37

if.then36:                                        ; preds = %do.body
  %17 = load ptr, ptr %zip, align 8
  call void @free(ptr noundef %17) #10
  store ptr null, ptr %zip, align 8
  br label %if.end37

if.end37:                                         ; preds = %if.then36, %do.body
  br label %do.end

do.end:                                           ; preds = %if.end37
  store ptr null, ptr %retval, align 8
  br label %return

return:                                           ; preds = %do.end, %if.end34, %if.then
  %18 = load ptr, ptr %retval, align 8
  ret ptr %18
}