; Function Attrs: nounwind uwtable
define hidden noundef ptr @zip_stream_open(ptr noundef %stream, i64 noundef %size, i32 noundef %level, i8 noundef signext %mode) local_unnamed_addr #4 {
entry:
  %call = tail call noalias dereferenceable_or_null(319608) ptr @calloc(i64 noundef 1, i64 noundef 319608) #34
  %tobool.not = icmp eq ptr %call, null
  br i1 %tobool.not, label %return, label %if.end

if.end:                                           ; preds = %entry
  %cmp = icmp slt i32 %level, 0
  %spec.store.select = select i1 %cmp, i32 6, i32 %level
  %and = and i32 %spec.store.select, 15
  %cmp3 = icmp samesign ugt i32 %and, 10
  br i1 %cmp3, label %if.then36, label %if.end5

if.end5:                                          ; preds = %if.end
  %level6 = getelementptr inbounds nuw i8, ptr %call, i64 112
  store i32 %spec.store.select, ptr %level6, align 8
  %cmp7 = icmp ne ptr %stream, null
  %cmp8 = icmp ne i64 %size, 0
  %or.cond = and i1 %cmp7, %cmp8
  %cmp10 = icmp eq i8 %mode, 114
  %or.cond1 = and i1 %or.cond, %cmp10
  br i1 %or.cond1, label %if.then12, label %if.else

if.then12:                                        ; preds = %if.end5
  %call13 = tail call i32 @mz_zip_reader_init_mem(ptr noundef nonnull %call, ptr noundef nonnull %stream, i64 noundef %size, i32 noundef 0)
  %tobool14.not = icmp eq i32 %call13, 0
  br i1 %tobool14.not, label %if.then36, label %return

if.else:                                          ; preds = %if.end5
  %cmp17 = icmp eq ptr %stream, null
  %cmp20 = icmp eq i64 %size, 0
  %or.cond2 = and i1 %cmp17, %cmp20
  %cmp24 = icmp eq i8 %mode, 119
  %or.cond3 = and i1 %or.cond2, %cmp24
  br i1 %or.cond3, label %if.then26, label %if.then36

if.then26:                                        ; preds = %if.else
  %call28 = tail call i32 @mz_zip_writer_init_heap(ptr noundef nonnull %call, i64 noundef 0, i64 noundef 1024)
  %tobool29.not = icmp eq i32 %call28, 0
  br i1 %tobool29.not, label %if.then36, label %return

if.then36:                                        ; preds = %if.else, %if.then26, %if.then12, %if.end
  tail call void @free(ptr noundef nonnull %call) #30
  br label %return

return:                                           ; preds = %if.then12, %if.then26, %entry, %if.then36
  %retval.0 = phi ptr [ null, %if.then36 ], [ null, %entry ], [ %call, %if.then26 ], [ %call, %if.then12 ]
  ret ptr %retval.0
}